target datalayout = "e-m:e-p270:32:32-p271:32:32-p272:64:64-i64:64-i128:128-f80:128-n8:16:32:64-S128"
target triple = "x86_64-pc-linux-gnu"

%"struct.Luau::CodeGen::IrOp" = type { i32 }
%"struct.Luau::CodeGen::FallbackStreamScope" = type <{ ptr, %"struct.Luau::CodeGen::IrOp", [4 x i8] }>

; Function Attrs: mustprogress uwtable
define linkonce_odr dso_local void @_ZN4Luau7CodeGen19FallbackStreamScopeC2ERNS0_9IrBuilderENS0_4IrOpES4_(ptr noundef nonnull align 8 dereferenceable(12) %0, ptr noundef nonnull align 8 dereferenceable(752) %1, i32 %2, i32 %3) unnamed_addr #0 comdat align 2 {
  %5 = alloca %"struct.Luau::CodeGen::IrOp", align 4
  %6 = alloca %"struct.Luau::CodeGen::IrOp", align 4
  %7 = alloca ptr, align 8
  %8 = alloca ptr, align 8
  %9 = alloca %"struct.Luau::CodeGen::IrOp", align 4
  %10 = alloca %"struct.Luau::CodeGen::IrOp", align 4
  %11 = alloca %"struct.Luau::CodeGen::IrOp", align 4
  %12 = getelementptr inbounds nuw %"struct.Luau::CodeGen::IrOp", ptr %5, i32 0, i32 0
  store i32 %2, ptr %12, align 4
  %13 = getelementptr inbounds nuw %"struct.Luau::CodeGen::IrOp", ptr %6, i32 0, i32 0
  store i32 %3, ptr %13, align 4
  store ptr %0, ptr %7, align 8, !tbaa !130
  store ptr %1, ptr %8, align 8, !tbaa !4
  %14 = load ptr, ptr %7, align 8
  %15 = getelementptr inbounds nuw %"struct.Luau::CodeGen::FallbackStreamScope", ptr %14, i32 0, i32 0
  %16 = load ptr, ptr %8, align 8, !tbaa !4
  store ptr %16, ptr %15, align 8, !tbaa !4
  %17 = getelementptr inbounds nuw %"struct.Luau::CodeGen::FallbackStreamScope", ptr %14, i32 0, i32 1
  call void @llvm.memcpy.p0.p0.i64(ptr align 8 %17, ptr align 4 %6, i64 4, i1 false), !tbaa.struct !112
  %18 = load ptr, ptr %8, align 8, !tbaa !4
  call void @llvm.memcpy.p0.p0.i64(ptr align 4 %9, ptr align 4 %6, i64 4, i1 false), !tbaa.struct !112
  %19 = getelementptr inbounds nuw %"struct.Luau::CodeGen::IrOp", ptr %9, i32 0, i32 0
  %20 = load i32, ptr %19, align 4
  %21 = call i32 @_ZN4Luau7CodeGen9IrBuilder4instENS0_5IrCmdENS0_4IrOpE(ptr noundef nonnull align 8 dereferenceable(752) %18, i8 noundef zeroext 46, i32 %20)
  %22 = getelementptr inbounds nuw %"struct.Luau::CodeGen::IrOp", ptr %10, i32 0, i32 0
  store i32 %21, ptr %22, align 4
  %23 = load ptr, ptr %8, align 8, !tbaa !4
  call void @llvm.memcpy.p0.p0.i64(ptr align 4 %11, ptr align 4 %5, i64 4, i1 false), !tbaa.struct !112
  %24 = getelementptr inbounds nuw %"struct.Luau::CodeGen::IrOp", ptr %11, i32 0, i32 0
  %25 = load i32, ptr %24, align 4
  call void @_ZN4Luau7CodeGen9IrBuilder10beginBlockENS0_4IrOpE(ptr noundef nonnull align 8 dereferenceable(752) %23, i32 %25)
  ret void
}

; Function Attrs: mustprogress uwtable
define dso_local void @_ZN4Luau7CodeGen22translateInstGetGlobalERNS0_9IrBuilderEPKji(ptr noundef nonnull align 8 dereferenceable(752) %0, ptr noundef %1, i32 noundef %2) #0 personality ptr @__gxx_personality_v0 {
  %4 = alloca ptr, align 8
  %5 = alloca ptr, align 8
  %6 = alloca i32, align 4
  %7 = alloca i32, align 4
  %8 = alloca i32, align 4
  %9 = alloca %"struct.Luau::CodeGen::IrOp", align 4
  %10 = alloca %"struct.Luau::CodeGen::IrOp", align 4
  %11 = alloca %"struct.Luau::CodeGen::IrOp", align 4
  %12 = alloca %"struct.Luau::CodeGen::IrOp", align 4
  %13 = alloca %"struct.Luau::CodeGen::IrOp", align 4
  %14 = alloca %"struct.Luau::CodeGen::IrOp", align 4
  %15 = alloca %"struct.Luau::CodeGen::IrOp", align 4
  %16 = alloca %"struct.Luau::CodeGen::IrOp", align 4
  %17 = alloca %"struct.Luau::CodeGen::IrOp", align 4
  %18 = alloca %"struct.Luau::CodeGen::IrOp", align 4
  %19 = alloca %"struct.Luau::CodeGen::IrOp", align 4
  %20 = alloca %"struct.Luau::CodeGen::IrOp", align 4
  %21 = alloca %"struct.Luau::CodeGen::IrOp", align 4
  %22 = alloca %"struct.Luau::CodeGen::IrOp", align 4
  %23 = alloca %"struct.Luau::CodeGen::IrOp", align 4
  %24 = alloca %"struct.Luau::CodeGen::IrOp", align 4
  %25 = alloca %"struct.Luau::CodeGen::IrOp", align 4
  %26 = alloca %"struct.Luau::CodeGen::FallbackStreamScope", align 8
  %27 = alloca %"struct.Luau::CodeGen::IrOp", align 4
  %28 = alloca %"struct.Luau::CodeGen::IrOp", align 4
  %29 = alloca %"struct.Luau::CodeGen::IrOp", align 4
  %30 = alloca ptr, align 8
  %31 = alloca i32, align 4
  %32 = alloca %"struct.Luau::CodeGen::IrOp", align 4
  %33 = alloca %"struct.Luau::CodeGen::IrOp", align 4
  %34 = alloca %"struct.Luau::CodeGen::IrOp", align 4
  %35 = alloca %"struct.Luau::CodeGen::IrOp", align 4
  %36 = alloca %"struct.Luau::CodeGen::IrOp", align 4
  store ptr %0, ptr %4, align 8, !tbaa !4
  store ptr %1, ptr %5, align 8, !tbaa !9
  store i32 %2, ptr %6, align 4, !tbaa !11
  call void @llvm.lifetime.start.p0(i64 4, ptr %7) #13
  %37 = load ptr, ptr %5, align 8, !tbaa !9
  %38 = load i32, ptr %37, align 4, !tbaa !11
  %39 = lshr i32 %38, 8
  %40 = and i32 %39, 255
  store i32 %40, ptr %7, align 4, !tbaa !11
  call void @llvm.lifetime.start.p0(i64 4, ptr %8) #13
  %41 = load ptr, ptr %5, align 8, !tbaa !9
  %42 = getelementptr inbounds i32, ptr %41, i64 1
  %43 = load i32, ptr %42, align 4, !tbaa !11
  store i32 %43, ptr %8, align 4, !tbaa !11
  call void @llvm.lifetime.start.p0(i64 4, ptr %9) #13
  %44 = load ptr, ptr %4, align 8, !tbaa !4
  %45 = call i32 @_ZN4Luau7CodeGen9IrBuilder5blockENS0_11IrBlockKindE(ptr noundef nonnull align 8 dereferenceable(752) %44, i8 noundef zeroext 1)
  %46 = getelementptr inbounds nuw %"struct.Luau::CodeGen::IrOp", ptr %9, i32 0, i32 0
  store i32 %45, ptr %46, align 4
  call void @llvm.lifetime.start.p0(i64 4, ptr %10) #13
  %47 = load ptr, ptr %4, align 8, !tbaa !4
  %48 = call i32 @_ZN4Luau7CodeGen9IrBuilder4instENS0_5IrCmdE(ptr noundef nonnull align 8 dereferenceable(752) %47, i8 noundef zeroext 7)
  %49 = getelementptr inbounds nuw %"struct.Luau::CodeGen::IrOp", ptr %10, i32 0, i32 0
  store i32 %48, ptr %49, align 4
  call void @llvm.lifetime.start.p0(i64 4, ptr %11) #13
  %50 = load ptr, ptr %4, align 8, !tbaa !4
  call void @llvm.memcpy.p0.p0.i64(ptr align 4 %12, ptr align 4 %10, i64 4, i1 false), !tbaa.struct !112
  %51 = load ptr, ptr %4, align 8, !tbaa !4
  %52 = load i32, ptr %6, align 4, !tbaa !11
  %53 = call i32 @_ZN4Luau7CodeGen9IrBuilder9constUintEj(ptr noundef nonnull align 8 dereferenceable(752) %51, i32 noundef %52)
  %54 = getelementptr inbounds nuw %"struct.Luau::CodeGen::IrOp", ptr %13, i32 0, i32 0
  store i32 %53, ptr %54, align 4
  %55 = load ptr, ptr %4, align 8, !tbaa !4
  %56 = load i32, ptr %8, align 4, !tbaa !11
  %57 = call i32 @_ZN4Luau7CodeGen9IrBuilder7vmConstEj(ptr noundef nonnull align 8 dereferenceable(752) %55, i32 noundef %56)
  %58 = getelementptr inbounds nuw %"struct.Luau::CodeGen::IrOp", ptr %14, i32 0, i32 0
  store i32 %57, ptr %58, align 4
  %59 = getelementptr inbounds nuw %"struct.Luau::CodeGen::IrOp", ptr %12, i32 0, i32 0
  %60 = load i32, ptr %59, align 4
  %61 = getelementptr inbounds nuw %"struct.Luau::CodeGen::IrOp", ptr %13, i32 0, i32 0
  %62 = load i32, ptr %61, align 4
  %63 = getelementptr inbounds nuw %"struct.Luau::CodeGen::IrOp", ptr %14, i32 0, i32 0
  %64 = load i32, ptr %63, align 4
  %65 = call i32 @_ZN4Luau7CodeGen9IrBuilder4instENS0_5IrCmdENS0_4IrOpES3_S3_(ptr noundef nonnull align 8 dereferenceable(752) %50, i8 noundef zeroext 9, i32 %60, i32 %62, i32 %64)
  %66 = getelementptr inbounds nuw %"struct.Luau::CodeGen::IrOp", ptr %11, i32 0, i32 0
  store i32 %65, ptr %66, align 4
  %67 = load ptr, ptr %4, align 8, !tbaa !4
  call void @llvm.memcpy.p0.p0.i64(ptr align 4 %15, ptr align 4 %11, i64 4, i1 false), !tbaa.struct !112
  %68 = load ptr, ptr %4, align 8, !tbaa !4
  %69 = load i32, ptr %8, align 4, !tbaa !11
  %70 = call i32 @_ZN4Luau7CodeGen9IrBuilder7vmConstEj(ptr noundef nonnull align 8 dereferenceable(752) %68, i32 noundef %69)
  %71 = getelementptr inbounds nuw %"struct.Luau::CodeGen::IrOp", ptr %16, i32 0, i32 0
  store i32 %70, ptr %71, align 4
  call void @llvm.memcpy.p0.p0.i64(ptr align 4 %17, ptr align 4 %9, i64 4, i1 false), !tbaa.struct !112
  %72 = getelementptr inbounds nuw %"struct.Luau::CodeGen::IrOp", ptr %15, i32 0, i32 0
  %73 = load i32, ptr %72, align 4
  %74 = getelementptr inbounds nuw %"struct.Luau::CodeGen::IrOp", ptr %16, i32 0, i32 0
  %75 = load i32, ptr %74, align 4
  %76 = getelementptr inbounds nuw %"struct.Luau::CodeGen::IrOp", ptr %17, i32 0, i32 0
  %77 = load i32, ptr %76, align 4
  %78 = call i32 @_ZN4Luau7CodeGen9IrBuilder4instENS0_5IrCmdENS0_4IrOpES3_S3_(ptr noundef nonnull align 8 dereferenceable(752) %67, i8 noundef zeroext 88, i32 %73, i32 %75, i32 %77)
  %79 = getelementptr inbounds nuw %"struct.Luau::CodeGen::IrOp", ptr %18, i32 0, i32 0
  store i32 %78, ptr %79, align 4
  call void @llvm.lifetime.start.p0(i64 4, ptr %19) #13
  %80 = load ptr, ptr %4, align 8, !tbaa !4
  call void @llvm.memcpy.p0.p0.i64(ptr align 4 %20, ptr align 4 %11, i64 4, i1 false), !tbaa.struct !112
  %81 = load ptr, ptr %4, align 8, !tbaa !4
  %82 = call i32 @_ZN4Luau7CodeGen9IrBuilder8constIntEi(ptr noundef nonnull align 8 dereferenceable(752) %81, i32 noundef 0)
  %83 = getelementptr inbounds nuw %"struct.Luau::CodeGen::IrOp", ptr %21, i32 0, i32 0
  store i32 %82, ptr %83, align 4
  %84 = getelementptr inbounds nuw %"struct.Luau::CodeGen::IrOp", ptr %20, i32 0, i32 0
  %85 = load i32, ptr %84, align 4
  %86 = getelementptr inbounds nuw %"struct.Luau::CodeGen::IrOp", ptr %21, i32 0, i32 0
  %87 = load i32, ptr %86, align 4
  %88 = call i32 @_ZN4Luau7CodeGen9IrBuilder4instENS0_5IrCmdENS0_4IrOpES3_(ptr noundef nonnull align 8 dereferenceable(752) %80, i8 noundef zeroext 6, i32 %85, i32 %87)
  %89 = getelementptr inbounds nuw %"struct.Luau::CodeGen::IrOp", ptr %19, i32 0, i32 0
  store i32 %88, ptr %89, align 4
  %90 = load ptr, ptr %4, align 8, !tbaa !4
  %91 = load ptr, ptr %4, align 8, !tbaa !4
  %92 = load i32, ptr %7, align 4, !tbaa !11
  %93 = trunc i32 %92 to i8
  %94 = call i32 @_ZN4Luau7CodeGen9IrBuilder5vmRegEh(ptr noundef nonnull align 8 dereferenceable(752) %91, i8 noundef zeroext %93)
  %95 = getelementptr inbounds nuw %"struct.Luau::CodeGen::IrOp", ptr %22, i32 0, i32 0
  store i32 %94, ptr %95, align 4
  call void @llvm.memcpy.p0.p0.i64(ptr align 4 %23, ptr align 4 %19, i64 4, i1 false), !tbaa.struct !112
  %96 = getelementptr inbounds nuw %"struct.Luau::CodeGen::IrOp", ptr %22, i32 0, i32 0
  %97 = load i32, ptr %96, align 4
  %98 = getelementptr inbounds nuw %"struct.Luau::CodeGen::IrOp", ptr %23, i32 0, i32 0
  %99 = load i32, ptr %98, align 4
  %100 = call i32 @_ZN4Luau7CodeGen9IrBuilder4instENS0_5IrCmdENS0_4IrOpES3_(ptr noundef nonnull align 8 dereferenceable(752) %90, i8 noundef zeroext 18, i32 %97, i32 %99)
  %101 = getelementptr inbounds nuw %"struct.Luau::CodeGen::IrOp", ptr %24, i32 0, i32 0
  store i32 %100, ptr %101, align 4
  call void @llvm.lifetime.start.p0(i64 4, ptr %25) #13
  %102 = load ptr, ptr %4, align 8, !tbaa !4
  %103 = load i32, ptr %6, align 4, !tbaa !11
  %104 = add nsw i32 %103, 2
  %105 = call i32 @_ZN4Luau7CodeGen9IrBuilder11blockAtInstEj(ptr noundef nonnull align 8 dereferenceable(752) %102, i32 noundef %104)
  %106 = getelementptr inbounds nuw %"struct.Luau::CodeGen::IrOp", ptr %25, i32 0, i32 0
  store i32 %105, ptr %106, align 4
  call void @llvm.lifetime.start.p0(i64 16, ptr %26) #13
  %107 = load ptr, ptr %4, align 8, !tbaa !4
  call void @llvm.memcpy.p0.p0.i64(ptr align 4 %27, ptr align 4 %9, i64 4, i1 false), !tbaa.struct !112
  call void @llvm.memcpy.p0.p0.i64(ptr align 4 %28, ptr align 4 %25, i64 4, i1 false), !tbaa.struct !112
  %108 = getelementptr inbounds nuw %"struct.Luau::CodeGen::IrOp", ptr %27, i32 0, i32 0
  %109 = load i32, ptr %108, align 4
  %110 = getelementptr inbounds nuw %"struct.Luau::CodeGen::IrOp", ptr %28, i32 0, i32 0
  %111 = load i32, ptr %110, align 4
  call void @_ZN4Luau7CodeGen19FallbackStreamScopeC2ERNS0_9IrBuilderENS0_4IrOpES4_(ptr noundef nonnull align 8 dereferenceable(12) %26, ptr noundef nonnull align 8 dereferenceable(752) %107, i32 %109, i32 %111)
  %112 = load ptr, ptr %4, align 8, !tbaa !4
  %113 = load ptr, ptr %4, align 8, !tbaa !4
  %114 = load i32, ptr %6, align 4, !tbaa !11
  %115 = invoke i32 @_ZN4Luau7CodeGen9IrBuilder9constUintEj(ptr noundef nonnull align 8 dereferenceable(752) %113, i32 noundef %114)
          to label %116 unwind label %144

116:                                              ; preds = %3
  %117 = getelementptr inbounds nuw %"struct.Luau::CodeGen::IrOp", ptr %29, i32 0, i32 0
  store i32 %115, ptr %117, align 4
  %118 = load ptr, ptr %4, align 8, !tbaa !4
  %119 = load i32, ptr %7, align 4, !tbaa !11
  %120 = trunc i32 %119 to i8
  %121 = invoke i32 @_ZN4Luau7CodeGen9IrBuilder5vmRegEh(ptr noundef nonnull align 8 dereferenceable(752) %118, i8 noundef zeroext %120)
          to label %122 unwind label %144

122:                                              ; preds = %116
  %123 = getelementptr inbounds nuw %"struct.Luau::CodeGen::IrOp", ptr %32, i32 0, i32 0
  store i32 %121, ptr %123, align 4
  %124 = load ptr, ptr %4, align 8, !tbaa !4
  %125 = load i32, ptr %8, align 4, !tbaa !11
  %126 = invoke i32 @_ZN4Luau7CodeGen9IrBuilder7vmConstEj(ptr noundef nonnull align 8 dereferenceable(752) %124, i32 noundef %125)
          to label %127 unwind label %144

127:                                              ; preds = %122
  %128 = getelementptr inbounds nuw %"struct.Luau::CodeGen::IrOp", ptr %33, i32 0, i32 0
  store i32 %126, ptr %128, align 4
  %129 = getelementptr inbounds nuw %"struct.Luau::CodeGen::IrOp", ptr %29, i32 0, i32 0
  %130 = load i32, ptr %129, align 4
  %131 = getelementptr inbounds nuw %"struct.Luau::CodeGen::IrOp", ptr %32, i32 0, i32 0
  %132 = load i32, ptr %131, align 4
  %133 = getelementptr inbounds nuw %"struct.Luau::CodeGen::IrOp", ptr %33, i32 0, i32 0
  %134 = load i32, ptr %133, align 4
  %135 = invoke i32 @_ZN4Luau7CodeGen9IrBuilder4instENS0_5IrCmdENS0_4IrOpES3_S3_(ptr noundef nonnull align 8 dereferenceable(752) %112, i8 noundef zeroext 108, i32 %130, i32 %132, i32 %134)
          to label %136 unwind label %144

136:                                              ; preds = %127
  %137 = getelementptr inbounds nuw %"struct.Luau::CodeGen::IrOp", ptr %34, i32 0, i32 0
  store i32 %135, ptr %137, align 4
  %138 = load ptr, ptr %4, align 8, !tbaa !4
  call void @llvm.memcpy.p0.p0.i64(ptr align 4 %35, ptr align 4 %25, i64 4, i1 false), !tbaa.struct !112
  %139 = getelementptr inbounds nuw %"struct.Luau::CodeGen::IrOp", ptr %35, i32 0, i32 0
  %140 = load i32, ptr %139, align 4
  %141 = invoke i32 @_ZN4Luau7CodeGen9IrBuilder4instENS0_5IrCmdENS0_4IrOpE(ptr noundef nonnull align 8 dereferenceable(752) %138, i8 noundef zeroext 46, i32 %140)
          to label %142 unwind label %144

142:                                              ; preds = %136
  %143 = getelementptr inbounds nuw %"struct.Luau::CodeGen::IrOp", ptr %36, i32 0, i32 0
  store i32 %141, ptr %143, align 4
  call void @_ZN4Luau7CodeGen19FallbackStreamScopeD2Ev(ptr noundef nonnull align 8 dereferenceable(12) %26) #13
  call void @llvm.lifetime.end.p0(i64 16, ptr %26) #13
  call void @llvm.lifetime.end.p0(i64 4, ptr %25) #13
  call void @llvm.lifetime.end.p0(i64 4, ptr %19) #13
  call void @llvm.lifetime.end.p0(i64 4, ptr %11) #13
  call void @llvm.lifetime.end.p0(i64 4, ptr %10) #13
  call void @llvm.lifetime.end.p0(i64 4, ptr %9) #13
  call void @llvm.lifetime.end.p0(i64 4, ptr %8) #13
  call void @llvm.lifetime.end.p0(i64 4, ptr %7) #13
  ret void

144:                                              ; preds = %136, %127, %122, %116, %3
  %145 = landingpad { ptr, i32 }
          cleanup
  %146 = extractvalue { ptr, i32 } %145, 0
  store ptr %146, ptr %30, align 8
  %147 = extractvalue { ptr, i32 } %145, 1
  store i32 %147, ptr %31, align 4
  call void @_ZN4Luau7CodeGen19FallbackStreamScopeD2Ev(ptr noundef nonnull align 8 dereferenceable(12) %26) #13
  call void @llvm.lifetime.end.p0(i64 16, ptr %26) #13
  call void @llvm.lifetime.end.p0(i64 4, ptr %25) #13
  call void @llvm.lifetime.end.p0(i64 4, ptr %19) #13
  call void @llvm.lifetime.end.p0(i64 4, ptr %11) #13
  call void @llvm.lifetime.end.p0(i64 4, ptr %10) #13
  call void @llvm.lifetime.end.p0(i64 4, ptr %9) #13
  call void @llvm.lifetime.end.p0(i64 4, ptr %8) #13
  call void @llvm.lifetime.end.p0(i64 4, ptr %7) #13
  br label %148

148:                                              ; preds = %144
  %149 = load ptr, ptr %30, align 8
  %150 = load i32, ptr %31, align 4
  %151 = insertvalue { ptr, i32 } poison, ptr %149, 0
  %152 = insertvalue { ptr, i32 } %151, i32 %150, 1
  resume { ptr, i32 } %152
}