; Function Attrs: mustprogress uwtable
define dso_local void @_ZN4Luau7CodeGen22translateInstGetGlobalERNS0_9IrBuilderEPKji(ptr noundef nonnull align 8 dereferenceable(752) %0, ptr noundef readonly captures(none) %1, i32 noundef %2) local_unnamed_addr #0 personality ptr @__gxx_personality_v0 {
  %4 = alloca %"struct.Luau::CodeGen::FallbackStreamScope", align 8
  %5 = load i32, ptr %1, align 4, !tbaa !4
  %6 = lshr i32 %5, 8
  %7 = getelementptr inbounds nuw i8, ptr %1, i64 4
  %8 = load i32, ptr %7, align 4, !tbaa !4
  %9 = tail call i32 @_ZN4Luau7CodeGen9IrBuilder5blockENS0_11IrBlockKindE(ptr noundef nonnull align 8 dereferenceable(752) %0, i8 noundef zeroext 1)
  %10 = tail call i32 @_ZN4Luau7CodeGen9IrBuilder4instENS0_5IrCmdE(ptr noundef nonnull align 8 dereferenceable(752) %0, i8 noundef zeroext 7)
  %11 = tail call i32 @_ZN4Luau7CodeGen9IrBuilder9constUintEj(ptr noundef nonnull align 8 dereferenceable(752) %0, i32 noundef %2)
  %12 = tail call i32 @_ZN4Luau7CodeGen9IrBuilder7vmConstEj(ptr noundef nonnull align 8 dereferenceable(752) %0, i32 noundef %8)
  %13 = tail call i32 @_ZN4Luau7CodeGen9IrBuilder4instENS0_5IrCmdENS0_4IrOpES3_S3_(ptr noundef nonnull align 8 dereferenceable(752) %0, i8 noundef zeroext 9, i32 %10, i32 %11, i32 %12)
  %14 = tail call i32 @_ZN4Luau7CodeGen9IrBuilder7vmConstEj(ptr noundef nonnull align 8 dereferenceable(752) %0, i32 noundef %8)
  %15 = tail call i32 @_ZN4Luau7CodeGen9IrBuilder4instENS0_5IrCmdENS0_4IrOpES3_S3_(ptr noundef nonnull align 8 dereferenceable(752) %0, i8 noundef zeroext 88, i32 %13, i32 %14, i32 %9)
  %16 = tail call i32 @_ZN4Luau7CodeGen9IrBuilder8constIntEi(ptr noundef nonnull align 8 dereferenceable(752) %0, i32 noundef 0)
  %17 = tail call i32 @_ZN4Luau7CodeGen9IrBuilder4instENS0_5IrCmdENS0_4IrOpES3_(ptr noundef nonnull align 8 dereferenceable(752) %0, i8 noundef zeroext 6, i32 %13, i32 %16)
  %18 = trunc i32 %6 to i8
  %19 = tail call i32 @_ZN4Luau7CodeGen9IrBuilder5vmRegEh(ptr noundef nonnull align 8 dereferenceable(752) %0, i8 noundef zeroext %18)
  %20 = tail call i32 @_ZN4Luau7CodeGen9IrBuilder4instENS0_5IrCmdENS0_4IrOpES3_(ptr noundef nonnull align 8 dereferenceable(752) %0, i8 noundef zeroext 18, i32 %19, i32 %17)
  %21 = add nsw i32 %2, 2
  %22 = tail call i32 @_ZN4Luau7CodeGen9IrBuilder11blockAtInstEj(ptr noundef nonnull align 8 dereferenceable(752) %0, i32 noundef %21)
  call void @llvm.lifetime.start.p0(i64 16, ptr nonnull %4) #14
  store ptr %0, ptr %4, align 8, !tbaa !111
  %23 = getelementptr inbounds nuw i8, ptr %4, i64 8
  store i32 %22, ptr %23, align 8, !tbaa !105
  %24 = tail call i32 @_ZN4Luau7CodeGen9IrBuilder4instENS0_5IrCmdENS0_4IrOpE(ptr noundef nonnull align 8 dereferenceable(752) %0, i8 noundef zeroext 46, i32 %22)
  tail call void @_ZN4Luau7CodeGen9IrBuilder10beginBlockENS0_4IrOpE(ptr noundef nonnull align 8 dereferenceable(752) %0, i32 %9)
  %25 = invoke i32 @_ZN4Luau7CodeGen9IrBuilder9constUintEj(ptr noundef nonnull align 8 dereferenceable(752) %0, i32 noundef %2)
          to label %26 unwind label %38

26:                                               ; preds = %3
  %27 = invoke i32 @_ZN4Luau7CodeGen9IrBuilder5vmRegEh(ptr noundef nonnull align 8 dereferenceable(752) %0, i8 noundef zeroext %18)
          to label %28 unwind label %38

28:                                               ; preds = %26
  %29 = invoke i32 @_ZN4Luau7CodeGen9IrBuilder7vmConstEj(ptr noundef nonnull align 8 dereferenceable(752) %0, i32 noundef %8)
          to label %30 unwind label %38

30:                                               ; preds = %28
  %31 = invoke i32 @_ZN4Luau7CodeGen9IrBuilder4instENS0_5IrCmdENS0_4IrOpES3_S3_(ptr noundef nonnull align 8 dereferenceable(752) %0, i8 noundef zeroext 108, i32 %25, i32 %27, i32 %29)
          to label %32 unwind label %38

32:                                               ; preds = %30
  %33 = invoke i32 @_ZN4Luau7CodeGen9IrBuilder4instENS0_5IrCmdENS0_4IrOpE(ptr noundef nonnull align 8 dereferenceable(752) %0, i8 noundef zeroext 46, i32 %22)
          to label %34 unwind label %38

34:                                               ; preds = %32
  invoke void @_ZN4Luau7CodeGen9IrBuilder10beginBlockENS0_4IrOpE(ptr noundef nonnull align 8 dereferenceable(752) %0, i32 %22)
          to label %_ZN4Luau7CodeGen19FallbackStreamScopeD2Ev.exit unwind label %35

35:                                               ; preds = %34
  %36 = landingpad { ptr, i32 }
          catch ptr null
  %37 = extractvalue { ptr, i32 } %36, 0
  tail call void @__clang_call_terminate(ptr %37) #15
  unreachable

_ZN4Luau7CodeGen19FallbackStreamScopeD2Ev.exit:   ; preds = %34
  call void @llvm.lifetime.end.p0(i64 16, ptr nonnull %4) #14
  ret void

38:                                               ; preds = %32, %30, %28, %26, %3
  %39 = landingpad { ptr, i32 }
          cleanup
  call void @_ZN4Luau7CodeGen19FallbackStreamScopeD2Ev(ptr noundef nonnull align 8 dereferenceable(12) %4) #14
  call void @llvm.lifetime.end.p0(i64 16, ptr nonnull %4) #14
  resume { ptr, i32 } %39
}